target datalayout = "e-m:e-p270:32:32-p271:32:32-p272:64:64-i64:64-i128:128-f80:128-n8:16:32:64-S128"
target triple = "x86_64-unknown-linux-gnu"

@_ZN8facebook5velox10expression9calculate6Parser8yypgoto_E = constant [3 x i8] c"\EB\EB\FA", align 1
@_ZN8facebook5velox10expression9calculate6Parser10yydefgoto_E = constant [3 x i8] c"\00\03\0C", align 1

; Function Attrs: mustprogress nounwind uwtable
define noundef signext i8 @_ZN8facebook5velox10expression9calculate6Parser17yy_lr_goto_state_Eai(i8 noundef signext %yystate, i32 noundef %yysym) #4 align 2 {
entry:
  %retval = alloca i8, align 1
  %yystate.addr = alloca i8, align 1
  %yysym.addr = alloca i32, align 4
  %yyr = alloca i32, align 4
  store i8 %yystate, ptr %yystate.addr, align 1
  store i32 %yysym, ptr %yysym.addr, align 4
  %0 = load i32, ptr %yysym.addr, align 4
  %sub = sub nsw i32 %0, 25
  %idxprom = sext i32 %sub to i64
  %arrayidx = getelementptr inbounds [0 x i8], ptr @_ZN8facebook5velox10expression9calculate6Parser8yypgoto_E, i64 0, i64 %idxprom
  %1 = load i8, ptr %arrayidx, align 1
  %conv = sext i8 %1 to i32
  %2 = load i8, ptr %yystate.addr, align 1
  %conv1 = sext i8 %2 to i32
  %add = add nsw i32 %conv, %conv1
  store i32 %add, ptr %yyr, align 4
  %3 = load i32, ptr %yyr, align 4
  %cmp = icmp sle i32 0, %3
  br i1 %cmp, label %land.lhs.true, label %if.else

land.lhs.true:                                    ; preds = %entry
  %4 = load i32, ptr %yyr, align 4
  %cmp2 = icmp sle i32 %4, 183
  br i1 %cmp2, label %land.lhs.true3, label %if.else

land.lhs.true3:                                   ; preds = %land.lhs.true
  %5 = load i32, ptr %yyr, align 4
  %idxprom4 = sext i32 %5 to i64
  %arrayidx5 = getelementptr inbounds [0 x i8], ptr @_ZN8facebook5velox10expression9calculate6Parser8yycheck_E, i64 0, i64 %idxprom4
  %6 = load i8, ptr %arrayidx5, align 1
  %conv6 = sext i8 %6 to i32
  %7 = load i8, ptr %yystate.addr, align 1
  %conv7 = sext i8 %7 to i32
  %cmp8 = icmp eq i32 %conv6, %conv7
  br i1 %cmp8, label %if.then, label %if.else

if.then:                                          ; preds = %land.lhs.true3
  %8 = load i32, ptr %yyr, align 4
  %idxprom9 = sext i32 %8 to i64
  %arrayidx10 = getelementptr inbounds [0 x i8], ptr @_ZN8facebook5velox10expression9calculate6Parser8yytable_E, i64 0, i64 %idxprom9
  %9 = load i8, ptr %arrayidx10, align 1
  store i8 %9, ptr %retval, align 1
  br label %return

if.else:                                          ; preds = %land.lhs.true3, %land.lhs.true, %entry
  %10 = load i32, ptr %yysym.addr, align 4
  %sub11 = sub nsw i32 %10, 25
  %idxprom12 = sext i32 %sub11 to i64
  %arrayidx13 = getelementptr inbounds [0 x i8], ptr @_ZN8facebook5velox10expression9calculate6Parser10yydefgoto_E, i64 0, i64 %idxprom12
  %11 = load i8, ptr %arrayidx13, align 1
  store i8 %11, ptr %retval, align 1
  br label %return

return:                                           ; preds = %if.else, %if.then
  %12 = load i8, ptr %retval, align 1
  ret i8 %12
}